target datalayout = "e-m:e-p270:32:32-p271:32:32-p272:64:64-i64:64-i128:128-f80:128-n8:16:32:64-S128"
target triple = "x86_64-pc-linux-gnu"

%struct.DdManager = type { %struct.DdNode, ptr, ptr, ptr, ptr, ptr, ptr, ptr, i32, i32, double, double, double, i32, i32, i32, i32, i32, i32, ptr, ptr, %struct.DdSubtable, i32, i32, i32, i32, i32, i32, i32, double, i32, i32, i32, ptr, i64, double, i32, ptr, ptr, ptr, ptr, ptr, ptr, ptr, i32, ptr, ptr, ptr, ptr, ptr, ptr, i32, i32, i32, double, i32, i32, i32, i32, double, double, i32, i32, i32, i32, i32, i32, i32, i32, i32, ptr, ptr, i32, i32, i32, i32, i32, i32, ptr, ptr, ptr, ptr, ptr, ptr, ptr, ptr, i32, i64, i64, i64, i32, i64, i64, double, double, double, double, double, double, i32, ptr, ptr, i64 }
%struct.DdNode = type { i32, i32, ptr, %union.anon, i64 }
%union.anon = type { %struct.DdChildren }
%struct.DdChildren = type { ptr, ptr }
%struct.DdSubtable = type { ptr, i32, i32, i32, i32, i32, i32, i32, i32, i32, i32, i32 }

@.str.14 = private unnamed_addr constant [3 x i8] c"wb\00", align 1
@.str.15 = private unnamed_addr constant [36 x i8] c"Cannot open file \22%s\22 for writing.\0A\00", align 1
@.str.16 = private unnamed_addr constant [48 x i8] c"# PLA file dumped by Extra_zddDumpPla() in ABC\0A\00", align 1
@.str.17 = private unnamed_addr constant [7 x i8] c".i %d\0A\00", align 1
@.str.18 = private unnamed_addr constant [6 x i8] c".o 1\0A\00", align 1
@.str.19 = private unnamed_addr constant [6 x i8] c"%s 1\0A\00", align 1
@.str.20 = private unnamed_addr constant [5 x i8] c".e\0A\0A\00", align 1

; Function Attrs: nounwind uwtable
define void @Extra_zddDumpPla(ptr noundef %0, ptr noundef %1, i32 noundef %2, ptr noundef %3) #0 {
  %5 = alloca ptr, align 8
  %6 = alloca ptr, align 8
  %7 = alloca i32, align 4
  %8 = alloca ptr, align 8
  %9 = alloca ptr, align 8
  %10 = alloca ptr, align 8
  %11 = alloca ptr, align 8
  %12 = alloca i32, align 4
  %13 = alloca ptr, align 8
  %14 = alloca i32, align 4
  store ptr %0, ptr %5, align 8, !tbaa !3
  store ptr %1, ptr %6, align 8, !tbaa !8
  store i32 %2, ptr %7, align 4, !tbaa !37
  store ptr %3, ptr %8, align 8, !tbaa !64
  call void @llvm.lifetime.start.p0(i64 8, ptr %9) #10
  call void @llvm.lifetime.start.p0(i64 8, ptr %10) #10
  call void @llvm.lifetime.start.p0(i64 8, ptr %11) #10
  call void @llvm.lifetime.start.p0(i64 4, ptr %12) #10
  call void @llvm.lifetime.start.p0(i64 8, ptr %13) #10
  %15 = load ptr, ptr %8, align 8, !tbaa !64
  %16 = call noalias ptr @fopen(ptr noundef %15, ptr noundef @.str.14)
  store ptr %16, ptr %13, align 8, !tbaa !93
  %17 = load ptr, ptr %13, align 8, !tbaa !93
  %18 = icmp eq ptr %17, null
  br i1 %18, label %19, label %22

19:                                               ; preds = %4
  %20 = load ptr, ptr %8, align 8, !tbaa !64
  %21 = call i32 (ptr, ...) @printf(ptr noundef @.str.15, ptr noundef %20)
  store i32 1, ptr %14, align 4
  br label %121

22:                                               ; preds = %4
  %23 = load ptr, ptr %13, align 8, !tbaa !93
  %24 = call i32 (ptr, ptr, ...) @fprintf(ptr noundef %23, ptr noundef @.str.16) #10
  %25 = load ptr, ptr %13, align 8, !tbaa !93
  %26 = load i32, ptr %7, align 4, !tbaa !37
  %27 = call i32 (ptr, ptr, ...) @fprintf(ptr noundef %25, ptr noundef @.str.17, i32 noundef %26) #10
  %28 = load ptr, ptr %13, align 8, !tbaa !93
  %29 = call i32 (ptr, ptr, ...) @fprintf(ptr noundef %28, ptr noundef @.str.18) #10
  %30 = load ptr, ptr %5, align 8, !tbaa !3
  %31 = getelementptr inbounds nuw %struct.DdManager, ptr %30, i32 0, i32 16
  %32 = load i32, ptr %31, align 4, !tbaa !58
  %33 = sext i32 %32 to i64
  %34 = call noalias ptr @calloc(i64 noundef %33, i64 noundef 1) #12
  store ptr %34, ptr %10, align 8, !tbaa !64
  %35 = load ptr, ptr %5, align 8, !tbaa !3
  %36 = load ptr, ptr %6, align 8, !tbaa !8
  %37 = call ptr @Cudd_zddFirstPath(ptr noundef %35, ptr noundef %36, ptr noundef %11)
  store ptr %37, ptr %9, align 8, !tbaa !47
  br label %38

38:                                               ; preds = %107, %22
  %39 = load ptr, ptr %9, align 8, !tbaa !47
  %40 = call i32 @Cudd_IsGenEmpty(ptr noundef %39)
  %41 = icmp ne i32 %40, 0
  br i1 %41, label %42, label %45

42:                                               ; preds = %38
  %43 = load ptr, ptr %9, align 8, !tbaa !47
  %44 = call i32 @Cudd_GenFree(ptr noundef %43)
  br label %46

45:                                               ; preds = %38
  br label %46

46:                                               ; preds = %45, %42
  %47 = phi i32 [ %44, %42 ], [ 1, %45 ]
  %48 = icmp ne i32 %47, 0
  br i1 %48, label %49, label %110

49:                                               ; preds = %46
  store i32 0, ptr %12, align 4, !tbaa !37
  br label %50

50:                                               ; preds = %59, %49
  %51 = load i32, ptr %12, align 4, !tbaa !37
  %52 = load i32, ptr %7, align 4, !tbaa !37
  %53 = icmp slt i32 %51, %52
  br i1 %53, label %54, label %62

54:                                               ; preds = %50
  %55 = load ptr, ptr %10, align 8, !tbaa !64
  %56 = load i32, ptr %12, align 4, !tbaa !37
  %57 = sext i32 %56 to i64
  %58 = getelementptr inbounds i8, ptr %55, i64 %57
  store i8 45, ptr %58, align 1, !tbaa !43
  br label %59

59:                                               ; preds = %54
  %60 = load i32, ptr %12, align 4, !tbaa !37
  %61 = add nsw i32 %60, 1
  store i32 %61, ptr %12, align 4, !tbaa !37
  br label %50, !llvm.loop !94

62:                                               ; preds = %50
  store i32 0, ptr %12, align 4, !tbaa !37
  br label %63

63:                                               ; preds = %100, %62
  %64 = load i32, ptr %12, align 4, !tbaa !37
  %65 = load i32, ptr %7, align 4, !tbaa !37
  %66 = icmp slt i32 %64, %65
  br i1 %66, label %67, label %103

67:                                               ; preds = %63
  %68 = load ptr, ptr %11, align 8, !tbaa !10
  %69 = load i32, ptr %12, align 4, !tbaa !37
  %70 = mul nsw i32 2, %69
  %71 = sext i32 %70 to i64
  %72 = getelementptr inbounds i32, ptr %68, i64 %71
  %73 = load i32, ptr %72, align 4, !tbaa !37
  %74 = icmp eq i32 %73, 1
  br i1 %74, label %84, label %75

75:                                               ; preds = %67
  %76 = load ptr, ptr %11, align 8, !tbaa !10
  %77 = load i32, ptr %12, align 4, !tbaa !37
  %78 = mul nsw i32 2, %77
  %79 = add nsw i32 %78, 1
  %80 = sext i32 %79 to i64
  %81 = getelementptr inbounds i32, ptr %76, i64 %80
  %82 = load i32, ptr %81, align 4, !tbaa !37
  %83 = icmp eq i32 %82, 1
  br i1 %83, label %84, label %99

84:                                               ; preds = %75, %67
  %85 = load ptr, ptr %11, align 8, !tbaa !10
  %86 = load i32, ptr %12, align 4, !tbaa !37
  %87 = mul nsw i32 2, %86
  %88 = sext i32 %87 to i64
  %89 = getelementptr inbounds i32, ptr %85, i64 %88
  %90 = load i32, ptr %89, align 4, !tbaa !37
  %91 = icmp eq i32 %90, 1
  %92 = zext i1 %91 to i32
  %93 = add nsw i32 48, %92
  %94 = trunc i32 %93 to i8
  %95 = load ptr, ptr %10, align 8, !tbaa !64
  %96 = load i32, ptr %12, align 4, !tbaa !37
  %97 = sext i32 %96 to i64
  %98 = getelementptr inbounds i8, ptr %95, i64 %97
  store i8 %94, ptr %98, align 1, !tbaa !43
  br label %99

99:                                               ; preds = %84, %75
  br label %100

100:                                              ; preds = %99
  %101 = load i32, ptr %12, align 4, !tbaa !37
  %102 = add nsw i32 %101, 1
  store i32 %102, ptr %12, align 4, !tbaa !37
  br label %63, !llvm.loop !95

103:                                              ; preds = %63
  %104 = load ptr, ptr %13, align 8, !tbaa !93
  %105 = load ptr, ptr %10, align 8, !tbaa !64
  %106 = call i32 (ptr, ptr, ...) @fprintf(ptr noundef %104, ptr noundef @.str.19, ptr noundef %105) #10
  br label %107

107:                                              ; preds = %103
  %108 = load ptr, ptr %9, align 8, !tbaa !47
  %109 = call i32 @Cudd_zddNextPath(ptr noundef %108, ptr noundef %11)
  br label %38, !llvm.loop !96

110:                                              ; preds = %46
  %111 = load ptr, ptr %13, align 8, !tbaa !93
  %112 = call i32 (ptr, ptr, ...) @fprintf(ptr noundef %111, ptr noundef @.str.20) #10
  %113 = load ptr, ptr %13, align 8, !tbaa !93
  %114 = call i32 @fclose(ptr noundef %113)
  %115 = load ptr, ptr %10, align 8, !tbaa !64
  %116 = icmp ne ptr %115, null
  br i1 %116, label %117, label %119

117:                                              ; preds = %110
  %118 = load ptr, ptr %10, align 8, !tbaa !64
  call void @free(ptr noundef %118) #10
  store ptr null, ptr %10, align 8, !tbaa !64
  br label %120

119:                                              ; preds = %110
  br label %120

120:                                              ; preds = %119, %117
  store i32 0, ptr %14, align 4
  br label %121

121:                                              ; preds = %120, %19
  call void @llvm.lifetime.end.p0(i64 8, ptr %13) #10
  call void @llvm.lifetime.end.p0(i64 4, ptr %12) #10
  call void @llvm.lifetime.end.p0(i64 8, ptr %11) #10
  call void @llvm.lifetime.end.p0(i64 8, ptr %10) #10
  call void @llvm.lifetime.end.p0(i64 8, ptr %9) #10
  %122 = load i32, ptr %14, align 4
  switch i32 %122, label %124 [
    i32 0, label %123
    i32 1, label %123
  ]

123:                                              ; preds = %121, %121
  ret void

124:                                              ; preds = %121
  unreachable
}