; Function Attrs: nounwind uwtable
define void @Extra_zddDumpPla(ptr noundef %0, ptr noundef %1, i32 noundef %2, ptr noundef %3) local_unnamed_addr #0 {
  %5 = alloca ptr, align 8
  call void @llvm.lifetime.start.p0(i64 8, ptr nonnull %5) #19
  %6 = tail call noalias ptr @fopen(ptr noundef %3, ptr noundef nonnull @.str.14)
  %7 = icmp eq ptr %6, null
  br i1 %7, label %8, label %10

8:                                                ; preds = %4
  %9 = tail call i32 (ptr, ...) @printf(ptr noundef nonnull dereferenceable(1) @.str.15, ptr noundef %3)
  br label %51

10:                                               ; preds = %4
  %11 = tail call i64 @fwrite(ptr nonnull @.str.16, i64 47, i64 1, ptr nonnull %6)
  %12 = tail call i32 (ptr, ptr, ...) @fprintf(ptr noundef nonnull %6, ptr noundef nonnull @.str.17, i32 noundef %2) #19
  %13 = tail call i64 @fwrite(ptr nonnull @.str.18, i64 5, i64 1, ptr nonnull %6)
  %14 = getelementptr inbounds nuw i8, ptr %0, i64 140
  %15 = load i32, ptr %14, align 4, !tbaa !49
  %16 = sext i32 %15 to i64
  %17 = tail call noalias ptr @calloc(i64 noundef %16, i64 noundef 1) #21
  %18 = call ptr @Cudd_zddFirstPath(ptr noundef %0, ptr noundef %1, ptr noundef nonnull %5) #19
  %19 = icmp sgt i32 %2, 0
  br i1 %19, label %.split.us.split.us.preheader, label %.split.split

.split.us.split.us.preheader:                     ; preds = %10
  %20 = zext nneg i32 %2 to i64
  br label %.split.us.split.us

.split.us.split.us:                               ; preds = %.split.us.split.us.preheader, %._crit_edge.us.us
  %21 = call i32 @Cudd_IsGenEmpty(ptr noundef %18) #19
  %.not.us.us = icmp eq i32 %21, 0
  br i1 %.not.us.us, label %.critedge.us.us, label %22

22:                                               ; preds = %.split.us.split.us
  %23 = call i32 @Cudd_GenFree(ptr noundef %18) #19
  %24 = icmp eq i32 %23, 0
  br i1 %24, label %.split40.us, label %.critedge.us.us

.critedge.us.us:                                  ; preds = %22, %.split.us.split.us
  call void @llvm.memset.p0.i64(ptr align 1 %17, i8 45, i64 %20, i1 false), !tbaa !36
  %25 = load ptr, ptr %5, align 8, !tbaa !40
  br label %26

26:                                               ; preds = %.critedge.us.us, %39
  %indvars.iv = phi i64 [ 0, %.critedge.us.us ], [ %indvars.iv.next, %39 ]
  %27 = shl nuw nsw i64 %indvars.iv, 1
  %28 = getelementptr inbounds nuw i32, ptr %25, i64 %27
  %29 = load i32, ptr %28, align 4, !tbaa !31
  %30 = icmp eq i32 %29, 1
  br i1 %30, label %36, label %31

31:                                               ; preds = %26
  %32 = or disjoint i64 %27, 1
  %33 = getelementptr inbounds nuw i32, ptr %25, i64 %32
  %34 = load i32, ptr %33, align 4, !tbaa !31
  %35 = icmp eq i32 %34, 1
  br i1 %35, label %36, label %39

36:                                               ; preds = %31, %26
  %37 = phi i8 [ 48, %31 ], [ 49, %26 ]
  %38 = getelementptr inbounds nuw i8, ptr %17, i64 %indvars.iv
  store i8 %37, ptr %38, align 1, !tbaa !36
  br label %39

39:                                               ; preds = %36, %31
  %indvars.iv.next = add nuw nsw i64 %indvars.iv, 1
  %exitcond.not = icmp eq i64 %indvars.iv.next, %20
  br i1 %exitcond.not, label %._crit_edge.us.us, label %26, !llvm.loop !80

._crit_edge.us.us:                                ; preds = %39
  %40 = call i32 (ptr, ptr, ...) @fprintf(ptr noundef nonnull %6, ptr noundef nonnull @.str.19, ptr noundef %17) #19
  %41 = call i32 @Cudd_zddNextPath(ptr noundef %18, ptr noundef nonnull %5) #19
  br label %.split.us.split.us, !llvm.loop !81

.split.split:                                     ; preds = %10, %.critedge
  %42 = call i32 @Cudd_IsGenEmpty(ptr noundef %18) #19
  %.not = icmp eq i32 %42, 0
  br i1 %.not, label %.critedge, label %43

43:                                               ; preds = %.split.split
  %44 = call i32 @Cudd_GenFree(ptr noundef %18) #19
  %45 = icmp eq i32 %44, 0
  br i1 %45, label %.split40.us, label %.critedge

.critedge:                                        ; preds = %.split.split, %43
  %46 = call i32 (ptr, ptr, ...) @fprintf(ptr noundef nonnull %6, ptr noundef nonnull @.str.19, ptr noundef %17) #19
  %47 = call i32 @Cudd_zddNextPath(ptr noundef %18, ptr noundef nonnull %5) #19
  br label %.split.split, !llvm.loop !81

.split40.us:                                      ; preds = %43, %22
  %48 = call i64 @fwrite(ptr nonnull @.str.20, i64 4, i64 1, ptr nonnull %6)
  %49 = call i32 @fclose(ptr noundef nonnull %6)
  %.not35 = icmp eq ptr %17, null
  br i1 %.not35, label %51, label %50

50:                                               ; preds = %.split40.us
  call void @free(ptr noundef nonnull %17) #19
  br label %51

51:                                               ; preds = %50, %.split40.us, %8
  call void @llvm.lifetime.end.p0(i64 8, ptr nonnull %5) #19
  ret void
}